; Function Attrs: mustprogress uwtable
define hidden noundef zeroext i1 @_ZNK14bv_recognizers11is_bit2boolEP4exprRS1_Rj(ptr noundef nonnull readonly align 4 captures(none) dereferenceable(4) %0, ptr noundef readonly captures(none) %1, ptr noundef nonnull writeonly align 8 captures(none) dereferenceable(8) %2, ptr noundef nonnull writeonly align 4 captures(none) dereferenceable(4) %3) local_unnamed_addr #3 align 2 {
  %5 = load i32, ptr %0, align 4, !tbaa !179
  %6 = getelementptr inbounds nuw i8, ptr %1, i64 4
  %7 = load i32, ptr %6, align 4
  %8 = and i32 %7, 65535
  %9 = icmp eq i32 %8, 0
  br i1 %9, label %10, label %_ZNK14bv_recognizers11is_bit2boolEPK4expr.exit.thread

10:                                               ; preds = %4
  %11 = getelementptr inbounds nuw i8, ptr %1, i64 16
  %12 = load ptr, ptr %11, align 8, !tbaa !163
  %13 = getelementptr inbounds nuw i8, ptr %12, i64 24
  %14 = load ptr, ptr %13, align 8, !tbaa !134
  %.not.i.i.i.i = icmp eq ptr %14, null
  br i1 %.not.i.i.i.i, label %_ZNK14bv_recognizers11is_bit2boolEPK4expr.exit.thread, label %_ZNK14bv_recognizers11is_bit2boolEPK4expr.exit

_ZNK14bv_recognizers11is_bit2boolEPK4expr.exit:   ; preds = %10
  %15 = load i32, ptr %14, align 8, !tbaa !19
  %16 = icmp eq i32 %15, %5
  %17 = getelementptr inbounds nuw i8, ptr %14, i64 4
  %18 = load i32, ptr %17, align 4
  %19 = icmp eq i32 %18, 63
  %20 = select i1 %16, i1 %19, i1 false
  br i1 %20, label %21, label %_ZNK14bv_recognizers11is_bit2boolEPK4expr.exit.thread

21:                                               ; preds = %_ZNK14bv_recognizers11is_bit2boolEPK4expr.exit
  %22 = getelementptr inbounds nuw i8, ptr %1, i64 32
  %23 = load ptr, ptr %22, align 8, !tbaa !159
  store ptr %23, ptr %2, align 8, !tbaa !159
  %24 = getelementptr inbounds nuw i8, ptr %14, i64 8
  %25 = load ptr, ptr %24, align 8, !tbaa !37
  %26 = getelementptr inbounds nuw i8, ptr %25, i64 8
  %27 = load i8, ptr %26, align 8, !tbaa !117
  %.not.i.i.i = icmp eq i8 %27, 0
  br i1 %.not.i.i.i, label %_ZNK9parameter7get_intEv.exit, label %28

28:                                               ; preds = %21
  %29 = tail call ptr @__cxa_allocate_exception(i64 16) #24
  store ptr getelementptr inbounds nuw inrange(-16, 24) (i8, ptr @_ZTVSt18bad_variant_access, i64 16), ptr %29, align 8, !tbaa !11
  %30 = getelementptr inbounds nuw i8, ptr %29, i64 8
  store ptr @.str.113, ptr %30, align 8, !tbaa !130
  tail call void @__cxa_throw(ptr nonnull %29, ptr nonnull @_ZTISt18bad_variant_access, ptr nonnull @_ZNSt9exceptionD2Ev) #26
  unreachable

_ZNK9parameter7get_intEv.exit:                    ; preds = %21
  %31 = load i32, ptr %25, align 4, !tbaa !38
  store i32 %31, ptr %3, align 4, !tbaa !38
  br label %_ZNK14bv_recognizers11is_bit2boolEPK4expr.exit.thread

_ZNK14bv_recognizers11is_bit2boolEPK4expr.exit.thread: ; preds = %10, %4, %_ZNK14bv_recognizers11is_bit2boolEPK4expr.exit, %_ZNK9parameter7get_intEv.exit
  %32 = phi i1 [ false, %_ZNK14bv_recognizers11is_bit2boolEPK4expr.exit ], [ true, %_ZNK9parameter7get_intEv.exit ], [ false, %4 ], [ false, %10 ]
  ret i1 %32
}